Certificate:
    Data:
        Version: 3 (0x2)
        Serial Number:
            42:41:48:8a:2f:1f:1e:83:47:39:ba:91:45:fd:72:f6:92:3c:bf:8c
        Signature Algorithm: sha256WithRSAEncryption
        Issuer: DC=edu, DC=ucsd, DC=e4e, O=UC San Diego, OU=Engineers for Exploration, CN=UCSD Engineers for Exploration
        Validity
            Not Before: Sep  6 00:39:00 2025 GMT
            Not After : Sep  6 00:39:00 2027 GMT
        Subject: C=US, ST=California, L=La Jolla, O=UC San Diego, OU=Engineers for Exploration, CN=fishsense-temporal/emailAddress=e4e@ucsd.edu
        Subject Public Key Info:
            Public Key Algorithm: rsaEncryption
                Public-Key: (2048 bit)
                Modulus:
                    00:a6:87:67:2f:49:22:13:60:05:45:a4:6a:f5:58:
                    08:a4:f3:4d:b4:89:66:f3:54:af:da:68:dc:de:05:
                    9e:2e:c7:1d:d0:67:35:4c:53:ad:73:5f:14:6c:04:
                    ef:33:68:ba:f0:69:a9:a1:6f:3b:14:82:4f:b7:46:
                    ce:97:98:1c:66:1b:74:84:13:59:9a:e5:b1:f5:e3:
                    e4:ea:ed:62:63:a6:76:89:fd:9a:5f:71:5c:b7:8d:
                    0f:63:0e:3e:6f:8b:8a:6a:7e:0b:1f:a9:9e:1f:a5:
                    fa:43:df:6e:36:6d:b9:74:1a:5a:1f:89:d4:15:a9:
                    63:04:c9:cb:45:86:f2:c5:d2:14:83:0b:03:f7:52:
                    5c:86:f7:ec:a9:2d:6d:af:64:ba:b6:cd:e7:67:f5:
                    2f:63:20:b8:23:fa:01:e3:c0:af:48:cb:8e:9f:0a:
                    85:e8:71:a3:54:77:59:b7:05:dc:b6:68:64:e9:ca:
                    e4:94:14:41:30:35:26:17:b1:82:19:97:cd:2b:cc:
                    ba:93:08:77:c2:f0:d9:30:65:4d:d0:58:44:62:15:
                    59:67:f7:a5:85:77:34:83:88:22:c3:69:f9:4c:8f:
                    cb:d4:33:5c:cd:5f:b2:e6:e3:0a:80:af:53:26:e6:
                    cf:91:2a:54:3a:b9:99:1e:b8:ca:1a:72:0f:8b:0e:
                    d6:37
                Exponent: 65537 (0x10001)
        X509v3 extensions:
            X509v3 Key Usage: critical
                Digital Signature
            X509v3 Basic Constraints: 
                CA:FALSE
            X509v3 Extended Key Usage: 
                TLS Web Client Authentication
            X509v3 Subject Key Identifier: 
                CA:6B:00:E8:FD:60:D2:5E:E5:05:0A:F4:5D:D2:B9:91:65:DF:B3:95
            X509v3 Authority Key Identifier: 
                62:38:B1:82:A7:13:C1:4A:C2:71:9A:B6:03:C2:20:83:21:7F:26:81
            X509v3 Subject Alternative Name: 
                email:e4e@ucsd.edu
    Signature Algorithm: sha256WithRSAEncryption
    Signature Value:
        64:50:cc:fb:e7:ae:98:9e:69:be:d5:ed:d1:99:3f:75:16:d6:
        02:39:f6:71:12:53:e5:8a:b2:3a:dd:0f:0b:ed:30:e6:e3:fd:
        16:64:75:9c:ab:1d:31:8a:3e:48:f9:d5:3b:b9:da:72:2d:96:
        88:09:dd:4e:bc:ad:9a:79:bf:f0:a9:59:00:1c:6b:b8:d9:fa:
        74:fd:86:fa:bc:89:a2:1e:3c:34:29:59:a0:8a:9b:f8:c6:e6:
        99:2f:81:2a:cd:4f:ec:11:47:47:fd:ff:ad:b0:5e:19:d1:df:
        9c:bf:56:de:cb:43:a9:68:a2:c8:a1:fb:99:93:d2:80:76:d5:
        e2:b4:31:df:4a:83:8f:6b:2c:95:17:b9:c9:ce:99:97:61:0c:
        63:83:a8:6a:da:be:e3:59:f9:c9:58:0e:2b:95:ac:53:c3:4e:
        28:b4:f0:49:0a:24:bf:f8:8f:52:d0:79:37:70:e5:1a:ad:90:
        22:7c:4c:56:ad:4e:e8:34:84:d4:ad:c4:6e:ff:44:7a:92:2d:
        80:03:81:da:f8:2d:b5:e0:de:98:9a:6e:32:96:eb:2d:2a:3a:
        0c:64:08:1f:ca:da:9b:e6:10:3b:bf:a5:65:36:39:cd:d4:21:
        7e:4d:99:b0:0f:cf:6c:56:1a:92:66:c1:e3:28:fe:7e:fa:81:
        3d:d3:65:21:82:0b:7e:35:e2:26:91:0e:7f:c4:c0:ab:59:74:
        82:b8:1c:9f:e7:48:b8:98:60:8e:6f:18:9c:c1:ce:17:64:f0:
        d4:a7:d8:2e:51:d2:1a:88:f7:2d:98:23:db:b5:b8:92:9f:ef:
        db:39:eb:42:fe:fb:82:d8:1e:1c:d3:f6:1a:7e:6b:b2:b1:3c:
        67:37:34:63:54:fe:70:09:20:7a:ad:ab:e1:83:fc:7a:3a:7b:
        8d:0d:ec:2f:cb:e2:0a:ca:8b:9b:1e:e8:b4:86:64:bd:85:eb:
        43:b5:be:b3:d0:7e:6b:bd:83:83:1a:04:06:db:e9:d0:0b:96:
        99:55:30:c8:61:95:29:66:c7:85:c6:6b:f9:ab:79:d6:da:a1:
        69:02:f2:02:f7:8e:92:e2:80:fe:a5:93:9c:2c:33:4c:68:25:
        00:a4:6a:49:eb:0b:b2:3f:59:05:af:dc:f1:b8:1c:d3:29:ec:
        34:a8:29:2d:07:87:73:28:f3:0f:b1:ea:13:f1:23:37:e8:05:
        d2:52:f1:94:59:a1:6e:dc:56:c8:33:00:34:a7:46:fe:2a:eb:
        f4:94:ef:84:28:f2:f3:78:42:af:1a:29:7a:70:3d:40:29:f4:
        44:c6:12:0f:24:da:0a:63:e3:24:d6:06:fc:10:4f:63:43:b5:
        be:cc:48:ab:95:a7:27:9d
-----BEGIN CERTIFICATE-----
MIIFazCCA1OgAwIBAgIUQkFIii8fHoNHObqRRf1y9pI8v4wwDQYJKoZIhvcNAQEL
BQAwgaQxEzARBgoJkiaJk/IsZAEZFgNlZHUxFDASBgoJkiaJk/IsZAEZFgR1Y3Nk
MRMwEQYKCZImiZPyLGQBGRYDZTRlMRUwEwYDVQQKDAxVQyBTYW4gRGllZ28xIjAg
BgNVBAsMGUVuZ2luZWVycyBmb3IgRXhwbG9yYXRpb24xJzAlBgNVBAMMHlVDU0Qg
RW5naW5lZXJzIGZvciBFeHBsb3JhdGlvbjAeFw0yNTA5MDYwMDM5MDBaFw0yNzA5
MDYwMDM5MDBaMIGqMQswCQYDVQQGEwJVUzETMBEGA1UECAwKQ2FsaWZvcm5pYTER
MA8GA1UEBwwITGEgSm9sbGExFTATBgNVBAoMDFVDIFNhbiBEaWVnbzEiMCAGA1UE
CwwZRW5naW5lZXJzIGZvciBFeHBsb3JhdGlvbjEbMBkGA1UEAwwSZmlzaHNlbnNl
LXRlbXBvcmFsMRswGQYJKoZIhvcNAQkBFgxlNGVAdWNzZC5lZHUwggEiMA0GCSqG
SIb3DQEBAQUAA4IBDwAwggEKAoIBAQCmh2cvSSITYAVFpGr1WAik8020iWbzVK/a
aNzeBZ4uxx3QZzVMU61zXxRsBO8zaLrwaamhbzsUgk+3Rs6XmBxmG3SEE1ma5bH1
4+Tq7WJjpnaJ/ZpfcVy3jQ9jDj5vi4pqfgsfqZ4fpfpD3242bbl0GlofidQVqWME
yctFhvLF0hSDCwP3UlyG9+ypLW2vZLq2zedn9S9jILgj+gHjwK9Iy46fCoXocaNU
d1m3Bdy2aGTpyuSUFEEwNSYXsYIZl80rzLqTCHfC8NkwZU3QWERiFVln96WFdzSD
iCLDaflMj8vUM1zNX7Lm4wqAr1Mm5s+RKlQ6uZkeuMoacg+LDtY3AgMBAAGjgYww
gYkwDgYDVR0PAQH/BAQDAgeAMAkGA1UdEwQCMAAwEwYDVR0lBAwwCgYIKwYBBQUH
AwIwHQYDVR0OBBYEFMprAOj9YNJe5QUK9F3SuZFl37OVMB8GA1UdIwQYMBaAFGI4
sYKnE8FKwnGatgPCIIMhfyaBMBcGA1UdEQQQMA6BDGU0ZUB1Y3NkLmVkdTANBgkq
hkiG9w0BAQsFAAOCAgEAZFDM++eumJ5pvtXt0Zk/dRbWAjn2cRJT5YqyOt0PC+0w
5uP9FmR1nKsdMYo+SPnVO7naci2WiAndTrytmnm/8KlZABxruNn6dP2G+ryJoh48
NClZoIqb+MbmmS+BKs1P7BFHR/3/rbBeGdHfnL9W3stDqWiiyKH7mZPSgHbV4rQx
30qDj2sslRe5yc6Zl2EMY4Ooatq+41n5yVgOK5WsU8NOKLTwSQokv/iPUtB5N3Dl
Gq2QInxMVq1O6DSE1K3Ebv9EepItgAOB2vgtteDemJpuMpbrLSo6DGQIH8ram+YQ
O7+lZTY5zdQhfk2ZsA/PbFYakmbB4yj+fvqBPdNlIYILfjXiJpEOf8TAq1l0grgc
n+dIuJhgjm8YnMHOF2Tw1KfYLlHSGoj3LZgj27W4kp/v2znrQv77gtgeHNP2Gn5r
srE8Zzc0Y1T+cAkgeq2r4YP8ejp7jQ3sL8viCsqLmx7otIZkvYXrQ7W+s9B+a72D
gxoEBtvp0AuWmVUwyGGVKWbHhcZr+at51tqhaQLyAveOkuKA/qWTnCwzTGglAKRq
SesLsj9ZBa/c8bgc0ynsNKgpLQeHcyjzD7HqE/EjN+gF0lLxlFmhbtxWyDMANKdG
/irr9JTvhCjy83hCrxopenA9QCn0RMYSDyTaCmPjJNYG/BBPY0O1vsxIq5WnJ50=
-----END CERTIFICATE-----
