Certificate:
    Data:
        Version: 3 (0x2)
        Serial Number:
            38:2b:d7:98:49:6f:29:47:91:48:b5:9e:d8:fa:bb:e1:84:df:de:03
        Signature Algorithm: sha256WithRSAEncryption
        Issuer: DC=edu, DC=ucsd, DC=e4e, O=UC San Diego, OU=Engineers for Exploration, CN=UCSD Engineers for Exploration
        Validity
            Not Before: Sep  5 00:54:00 2025 GMT
            Not After : Sep  5 00:54:00 2027 GMT
        Subject: C=US, ST=California, L=La Jolla, O=UC San Diego, OU=Engineers for Exploration, CN=fishsense-temporal-ui/emailAddress=e4e@ucsd.edu
        Subject Public Key Info:
            Public Key Algorithm: rsaEncryption
                Public-Key: (2048 bit)
                Modulus:
                    00:aa:d7:5f:d5:26:57:37:10:cb:07:6d:ae:4c:1d:
                    3f:20:ce:30:9a:43:07:c8:1f:3a:21:cb:a7:66:e9:
                    b5:7f:af:ca:5e:6a:59:0b:a1:4d:f7:bb:2e:77:5a:
                    d6:e7:f0:81:d2:73:d9:ce:95:8f:ce:1e:50:86:40:
                    0d:1f:29:6b:6e:43:71:7a:63:f7:55:17:e1:c2:91:
                    64:84:cd:94:02:27:fa:f7:f8:54:16:94:5b:23:a9:
                    e7:47:38:33:c6:7b:79:7d:f5:c5:cb:1f:11:a6:42:
                    96:a0:41:0d:43:d0:f1:79:95:65:78:a0:da:37:c2:
                    3a:d9:82:90:55:15:16:01:7d:68:ab:61:43:bd:ab:
                    05:e1:d8:40:95:82:2f:2a:72:95:af:e2:42:79:a9:
                    04:3b:5b:98:6c:0c:93:8d:4c:e9:9f:2a:b2:0b:f7:
                    ae:5b:96:5c:3b:7a:94:71:48:ba:ab:9b:5e:fa:b4:
                    45:55:26:b5:bc:1f:a7:f5:f5:c2:5f:b7:77:47:29:
                    63:fb:05:7f:f7:53:88:c4:9d:a1:56:31:5f:29:9a:
                    00:92:2e:d6:87:ec:85:c5:48:15:3d:ce:e0:6b:eb:
                    34:7b:90:aa:90:f6:c5:0b:3c:a0:e6:6d:82:6b:7b:
                    37:6e:4e:9f:1b:95:88:de:77:e0:3f:81:9e:85:10:
                    bd:3f
                Exponent: 65537 (0x10001)
        X509v3 extensions:
            X509v3 Key Usage: critical
                Digital Signature
            X509v3 Basic Constraints: 
                CA:FALSE
            X509v3 Extended Key Usage: 
                TLS Web Client Authentication
            X509v3 Subject Key Identifier: 
                A4:4C:10:1B:4A:5A:AC:D4:68:34:01:E0:4D:97:E8:E6:FD:D9:27:96
            X509v3 Authority Key Identifier: 
                62:38:B1:82:A7:13:C1:4A:C2:71:9A:B6:03:C2:20:83:21:7F:26:81
            X509v3 Subject Alternative Name: 
                email:e4e@ucsd.edu
    Signature Algorithm: sha256WithRSAEncryption
    Signature Value:
        c5:95:7c:42:99:53:de:0f:bb:e1:f2:1e:5b:eb:9f:35:f8:de:
        79:97:e9:d2:93:90:26:e4:47:7f:21:17:e2:99:b3:46:bf:f8:
        2a:bd:96:ac:4d:d6:fe:0c:ef:1b:a2:9c:cd:b8:3e:24:1e:9c:
        4e:54:4f:b9:24:bd:ca:34:fa:4b:8f:1f:7c:d0:62:13:f9:ce:
        60:f5:64:2b:0a:21:a2:93:b7:43:6c:32:c3:b2:da:6f:85:08:
        ac:e7:31:cc:62:88:1d:68:00:8c:3c:c1:37:1f:01:7e:92:5d:
        be:c4:00:a7:f6:57:f8:6a:14:7f:5a:27:3b:3e:fe:61:29:d0:
        5e:dd:16:36:24:37:1a:ec:15:b2:09:b4:ff:72:08:5a:a3:0d:
        b9:d3:21:9a:2a:fd:e6:08:1f:74:c6:3a:ad:73:0b:ad:d0:06:
        03:27:b6:10:35:31:37:72:12:31:9f:7b:b9:d6:2c:cc:b3:30:
        4a:0f:54:69:8b:8f:4b:d5:3c:5f:36:44:52:42:1f:a7:10:17:
        76:da:f9:22:33:1a:f7:c0:7d:92:b7:da:2b:2f:60:2a:59:5a:
        a4:07:fb:63:dc:40:90:29:c3:15:04:de:91:a6:4a:e0:8f:1f:
        e3:e8:bc:23:eb:c5:0e:b3:70:20:10:66:0b:63:5c:42:1b:6c:
        5a:ab:c8:c7:d9:7b:46:5d:7c:1e:4d:c7:67:50:75:56:76:d5:
        c3:0c:fe:55:76:70:da:a0:4e:4c:3a:5a:69:c9:56:a9:13:4a:
        35:cf:44:50:49:4a:0f:1d:a2:0d:63:84:e9:cd:dd:b1:09:1e:
        98:02:d8:2b:cb:eb:c3:54:60:04:30:d9:4c:2f:c2:10:7c:02:
        b6:e3:e5:55:e5:6e:81:3b:b9:13:76:f5:c3:c6:d4:e6:ff:aa:
        38:1f:26:13:91:4f:55:de:fc:8e:52:44:3b:c0:1f:8e:f6:a9:
        28:2b:73:e4:cd:43:c5:fc:42:30:0d:0e:cf:7d:c1:9f:72:89:
        32:b5:c0:6f:1e:c5:8f:6f:ce:e7:85:63:a3:52:2a:26:05:e2:
        cd:63:15:83:32:84:12:a2:ed:79:f6:9a:a0:9a:ac:bb:44:9f:
        05:3e:ee:a2:52:99:99:46:1f:fe:54:de:28:38:6f:68:4b:29:
        59:12:16:3f:f2:ed:ed:8f:f4:ed:d0:4c:df:42:4f:f1:67:05:
        4a:07:02:0e:c9:ea:83:d2:df:db:63:1f:45:ca:20:bf:e1:e9:
        1a:61:97:a5:0c:45:a1:d1:db:d0:78:7d:94:1e:ea:53:84:ad:
        3b:d0:94:48:b6:2d:b1:89:33:f0:ce:4a:8d:b0:22:11:3b:6b:
        61:44:40:93:27:b6:a2:4d
-----BEGIN CERTIFICATE-----
MIIFbjCCA1agAwIBAgIUOCvXmElvKUeRSLWe2Pq74YTf3gMwDQYJKoZIhvcNAQEL
BQAwgaQxEzARBgoJkiaJk/IsZAEZFgNlZHUxFDASBgoJkiaJk/IsZAEZFgR1Y3Nk
MRMwEQYKCZImiZPyLGQBGRYDZTRlMRUwEwYDVQQKDAxVQyBTYW4gRGllZ28xIjAg
BgNVBAsMGUVuZ2luZWVycyBmb3IgRXhwbG9yYXRpb24xJzAlBgNVBAMMHlVDU0Qg
RW5naW5lZXJzIGZvciBFeHBsb3JhdGlvbjAeFw0yNTA5MDUwMDU0MDBaFw0yNzA5
MDUwMDU0MDBaMIGtMQswCQYDVQQGEwJVUzETMBEGA1UECAwKQ2FsaWZvcm5pYTER
MA8GA1UEBwwITGEgSm9sbGExFTATBgNVBAoMDFVDIFNhbiBEaWVnbzEiMCAGA1UE
CwwZRW5naW5lZXJzIGZvciBFeHBsb3JhdGlvbjEeMBwGA1UEAwwVZmlzaHNlbnNl
LXRlbXBvcmFsLXVpMRswGQYJKoZIhvcNAQkBFgxlNGVAdWNzZC5lZHUwggEiMA0G
CSqGSIb3DQEBAQUAA4IBDwAwggEKAoIBAQCq11/VJlc3EMsHba5MHT8gzjCaQwfI
Hzohy6dm6bV/r8pealkLoU33uy53Wtbn8IHSc9nOlY/OHlCGQA0fKWtuQ3F6Y/dV
F+HCkWSEzZQCJ/r3+FQWlFsjqedHODPGe3l99cXLHxGmQpagQQ1D0PF5lWV4oNo3
wjrZgpBVFRYBfWirYUO9qwXh2ECVgi8qcpWv4kJ5qQQ7W5hsDJONTOmfKrIL965b
llw7epRxSLqrm176tEVVJrW8H6f19cJft3dHKWP7BX/3U4jEnaFWMV8pmgCSLtaH
7IXFSBU9zuBr6zR7kKqQ9sULPKDmbYJrezduTp8blYjed+A/gZ6FEL0/AgMBAAGj
gYwwgYkwDgYDVR0PAQH/BAQDAgeAMAkGA1UdEwQCMAAwEwYDVR0lBAwwCgYIKwYB
BQUHAwIwHQYDVR0OBBYEFKRMEBtKWqzUaDQB4E2X6Ob92SeWMB8GA1UdIwQYMBaA
FGI4sYKnE8FKwnGatgPCIIMhfyaBMBcGA1UdEQQQMA6BDGU0ZUB1Y3NkLmVkdTAN
BgkqhkiG9w0BAQsFAAOCAgEAxZV8QplT3g+74fIeW+ufNfjeeZfp0pOQJuRHfyEX
4pmzRr/4Kr2WrE3W/gzvG6Kczbg+JB6cTlRPuSS9yjT6S48ffNBiE/nOYPVkKwoh
opO3Q2wyw7Lab4UIrOcxzGKIHWgAjDzBNx8BfpJdvsQAp/ZX+GoUf1onOz7+YSnQ
Xt0WNiQ3GuwVsgm0/3IIWqMNudMhmir95ggfdMY6rXMLrdAGAye2EDUxN3ISMZ97
udYszLMwSg9UaYuPS9U8XzZEUkIfpxAXdtr5IjMa98B9krfaKy9gKllapAf7Y9xA
kCnDFQTekaZK4I8f4+i8I+vFDrNwIBBmC2NcQhtsWqvIx9l7Rl18Hk3HZ1B1VnbV
wwz+VXZw2qBOTDpaaclWqRNKNc9EUElKDx2iDWOE6c3dsQkemALYK8vrw1RgBDDZ
TC/CEHwCtuPlVeVugTu5E3b1w8bU5v+qOB8mE5FPVd78jlJEO8AfjvapKCtz5M1D
xfxCMA0Oz33Bn3KJMrXAbx7Fj2/O54Vjo1IqJgXizWMVgzKEEqLtefaaoJqsu0Sf
BT7uolKZmUYf/lTeKDhvaEspWRIWP/Lt7Y/07dBM30JP8WcFSgcCDsnqg9Lf22Mf
Rcogv+HpGmGXpQxFodHb0Hh9lB7qU4StO9CUSLYtsYkz8M5KjbAiETtrYURAkye2
ok0=
-----END CERTIFICATE-----
