Certificate:
    Data:
        Version: 3 (0x2)
        Serial Number:
            7c:c8:78:42:46:23:cf:76:82:70:1b:88:74:3c:53:5e:88:44:c4:9a
        Signature Algorithm: sha256WithRSAEncryption
        Issuer: DC=edu, DC=ucsd, DC=e4e, O=UC San Diego, OU=Engineers for Exploration, CN=UCSD Engineers for Exploration
        Validity
            Not Before: Sep  4 19:07:55 2025 GMT
            Not After : Sep  4 19:07:55 2027 GMT
        Subject: DC=edu, DC=ucsd, DC=workflows.fishsense.e4e, O=UC San Diego, OU=Engineers for Exploration, CN=workflows.fishsense.e4e.ucsd.edu
        Subject Public Key Info:
            Public Key Algorithm: rsaEncryption
                Public-Key: (4096 bit)
                Modulus:
                    00:89:19:f1:eb:41:29:9b:a8:12:6d:f0:74:5e:71:
                    95:0b:f1:18:34:58:e6:8e:d9:8b:e6:6d:ea:1a:19:
                    75:08:f9:75:5d:12:c6:e7:c0:d7:5d:fa:a0:a1:42:
                    ab:ad:0c:8d:e9:3f:c5:ee:30:0a:68:a5:80:83:57:
                    1b:8f:64:93:a5:89:01:54:80:2e:58:55:38:be:38:
                    b7:8e:fd:ab:8c:71:c4:43:02:28:b3:23:cd:c8:37:
                    b9:ac:f2:a0:06:f4:f2:d3:03:62:6c:42:0a:14:ae:
                    57:c9:17:2b:78:48:4d:13:3c:d6:66:26:f8:9a:6b:
                    48:9a:06:0e:35:6b:29:da:b4:40:53:39:09:5d:77:
                    c5:1c:9a:42:69:97:8a:11:95:f8:eb:f6:b3:43:f2:
                    b7:24:98:19:2d:91:4c:4f:00:14:d4:f0:f8:33:53:
                    26:b2:f7:d7:b5:15:f5:99:04:ce:c4:d0:b5:04:ce:
                    a1:27:24:16:d8:43:a6:02:e9:e8:c0:bb:f8:0e:21:
                    f6:d4:72:7d:40:b8:0f:10:14:54:ed:26:19:7d:7e:
                    94:bc:71:c7:c9:9b:c3:ba:f0:1b:de:7e:39:05:d1:
                    2e:6c:d6:2c:28:24:7b:03:2d:3b:2d:22:3f:7f:25:
                    bb:69:31:a1:a1:0c:bd:ae:86:ea:32:30:b5:d1:1b:
                    b6:7c:f8:97:f7:e4:c8:cd:e4:07:28:1d:46:ee:72:
                    f9:dc:6a:ed:f2:6a:5b:ac:15:3f:f1:5a:86:51:cd:
                    e0:3f:2a:42:d0:4f:58:3f:b8:82:4a:ad:0c:fb:97:
                    68:1f:2d:7e:8e:3f:fa:75:88:25:1a:14:23:0c:fe:
                    54:09:45:a9:dd:43:6b:12:c5:ff:9b:42:34:f0:67:
                    00:4a:1f:dd:54:5d:85:4d:bc:f8:a5:76:8e:81:e0:
                    69:c8:1f:04:1c:bf:23:5c:3b:4a:56:3d:87:8c:02:
                    6a:8c:d9:7f:81:0c:c9:f5:25:f6:ed:ac:4e:a8:7b:
                    70:fd:e1:0e:05:a3:f1:31:8c:2e:e0:3a:c7:47:61:
                    15:c0:af:24:57:df:65:33:b4:ee:53:7c:d6:bb:e1:
                    04:c7:90:ba:94:24:01:3a:c1:7d:12:bc:27:bb:93:
                    49:98:68:fa:15:f2:e1:ad:c4:56:35:63:7b:71:c4:
                    a0:f8:64:1f:26:ee:ad:7e:36:b5:75:42:5b:57:0c:
                    54:3c:8f:8c:4c:c0:a6:5d:75:ba:5a:8a:61:90:49:
                    cc:34:f3:1e:a5:8c:bf:af:ca:e1:91:1a:05:b5:05:
                    a8:b8:a7:43:82:63:cd:37:e7:63:c8:9f:3a:3d:ae:
                    35:0f:20:fd:42:bb:fc:6f:65:b9:93:64:ba:56:39:
                    75:9f:dd
                Exponent: 65537 (0x10001)
        X509v3 extensions:
            X509v3 Key Usage: critical
                Digital Signature, Key Encipherment
            X509v3 Basic Constraints: 
                CA:FALSE
            X509v3 Extended Key Usage: 
                TLS Web Server Authentication, TLS Web Client Authentication
            X509v3 Subject Key Identifier: 
                03:1C:12:D4:A8:2E:8E:26:6E:34:36:F0:82:57:67:8F:ED:68:29:92
            X509v3 Authority Key Identifier: 
                62:38:B1:82:A7:13:C1:4A:C2:71:9A:B6:03:C2:20:83:21:7F:26:81
            X509v3 Subject Alternative Name: 
                DNS:workflows.fishsense.e4e.ucsd.edu
    Signature Algorithm: sha256WithRSAEncryption
    Signature Value:
        1d:48:49:84:41:d0:7e:86:a4:7d:6b:c9:79:fd:a1:1c:99:f6:
        41:57:c2:88:48:72:07:41:af:77:39:6e:5d:2d:88:4c:cd:ac:
        ee:20:74:1d:97:8d:34:9c:68:2f:38:10:65:78:0b:84:2b:89:
        e5:80:43:09:bb:ef:bd:70:05:fd:36:ad:4e:10:80:81:72:3f:
        e5:f1:d0:21:84:ef:b8:02:05:c5:5f:39:7e:31:0f:ec:c2:29:
        c3:e5:5a:a2:96:40:3a:dd:ca:5c:ed:9d:77:91:7f:ea:04:21:
        35:fe:cd:c3:45:5e:87:93:37:d1:6f:1d:25:dc:4b:7e:eb:95:
        b7:eb:d4:7f:92:1f:08:06:17:8a:51:7a:78:89:6f:e5:e0:6d:
        1e:0b:f4:44:61:7d:0a:90:e6:07:e1:af:c9:f2:41:35:43:5c:
        bd:81:a4:9f:a1:bc:94:cc:1b:f4:a3:74:3a:0a:ad:33:98:fa:
        4f:c1:03:f9:28:c1:12:d2:a5:79:20:77:de:05:d0:d6:07:67:
        01:30:26:8c:8e:8c:dd:8b:67:41:99:97:d5:5a:c3:aa:bb:e0:
        88:48:ea:0c:58:71:8e:fd:38:96:df:01:45:a2:f2:98:21:2c:
        5e:dc:14:e0:80:c7:57:f2:e4:57:15:0c:7d:a4:79:64:a1:5f:
        59:b5:c0:21:73:46:c5:fa:2f:02:12:2b:2d:06:62:56:53:d8:
        82:1a:7b:73:c0:f3:9a:77:31:93:07:0d:4f:c4:c7:8f:39:10:
        d3:87:4d:c7:a6:a4:33:d2:ff:75:0a:3d:fa:b0:25:e5:14:6c:
        5e:2b:f2:37:c3:8f:da:ab:d3:09:37:a8:3a:04:79:c5:ad:4d:
        5a:ae:40:c2:7d:20:43:39:d1:4d:9f:d7:69:8a:a8:9e:f2:a9:
        00:77:a0:38:16:17:7b:1b:d7:26:4f:a4:c1:81:a1:91:20:5b:
        cb:3c:cf:45:75:67:98:ce:76:b4:b6:3b:23:b7:fc:55:18:3f:
        f0:01:45:00:ca:c9:22:25:a3:32:a5:a5:91:90:16:03:99:38:
        39:03:d2:8d:84:fe:0b:7d:62:76:34:3c:53:3e:f3:6e:bc:c7:
        ae:90:54:47:95:51:ea:d0:bc:a5:ce:fa:22:c4:6b:55:e0:8d:
        05:6d:67:a1:42:05:51:2d:63:bc:68:41:83:3e:8c:4f:95:7f:
        f2:c4:3c:0d:89:99:af:a2:55:d0:2b:ba:69:7f:6a:3b:dd:3a:
        b5:16:0f:e0:ea:dc:20:66:27:8e:42:07:af:96:11:f9:45:6b:
        e5:9f:aa:89:68:81:2d:7e:c0:70:e8:5f:26:21:76:68:1f:d1:
        93:16:ab:5f:9b:30:90:bd
-----BEGIN CERTIFICATE-----
MIIGmTCCBIGgAwIBAgIUfMh4QkYjz3aCcBuIdDxTXohExJowDQYJKoZIhvcNAQEL
BQAwgaQxEzARBgoJkiaJk/IsZAEZFgNlZHUxFDASBgoJkiaJk/IsZAEZFgR1Y3Nk
MRMwEQYKCZImiZPyLGQBGRYDZTRlMRUwEwYDVQQKDAxVQyBTYW4gRGllZ28xIjAg
BgNVBAsMGUVuZ2luZWVycyBmb3IgRXhwbG9yYXRpb24xJzAlBgNVBAMMHlVDU0Qg
RW5naW5lZXJzIGZvciBFeHBsb3JhdGlvbjAeFw0yNTA5MDQxOTA3NTVaFw0yNzA5
MDQxOTA3NTVaMIG6MRMwEQYKCZImiZPyLGQBGRYDZWR1MRQwEgYKCZImiZPyLGQB
GRYEdWNzZDEnMCUGCgmSJomT8ixkARkWF3dvcmtmbG93cy5maXNoc2Vuc2UuZTRl
MRUwEwYDVQQKDAxVQyBTYW4gRGllZ28xIjAgBgNVBAsMGUVuZ2luZWVycyBmb3Ig
RXhwbG9yYXRpb24xKTAnBgNVBAMMIHdvcmtmbG93cy5maXNoc2Vuc2UuZTRlLnVj
c2QuZWR1MIICIjANBgkqhkiG9w0BAQEFAAOCAg8AMIICCgKCAgEAiRnx60Epm6gS
bfB0XnGVC/EYNFjmjtmL5m3qGhl1CPl1XRLG58DXXfqgoUKrrQyN6T/F7jAKaKWA
g1cbj2STpYkBVIAuWFU4vji3jv2rjHHEQwIosyPNyDe5rPKgBvTy0wNibEIKFK5X
yRcreEhNEzzWZib4mmtImgYONWsp2rRAUzkJXXfFHJpCaZeKEZX46/azQ/K3JJgZ
LZFMTwAU1PD4M1MmsvfXtRX1mQTOxNC1BM6hJyQW2EOmAunowLv4DiH21HJ9QLgP
EBRU7SYZfX6UvHHHyZvDuvAb3n45BdEubNYsKCR7Ay07LSI/fyW7aTGhoQy9robq
MjC10Ru2fPiX9+TIzeQHKB1G7nL53Grt8mpbrBU/8VqGUc3gPypC0E9YP7iCSq0M
+5doHy1+jj/6dYglGhQjDP5UCUWp3UNrEsX/m0I08GcASh/dVF2FTbz4pXaOgeBp
yB8EHL8jXDtKVj2HjAJqjNl/gQzJ9SX27axOqHtw/eEOBaPxMYwu4DrHR2EVwK8k
V99lM7TuU3zWu+EEx5C6lCQBOsF9Erwnu5NJmGj6FfLhrcRWNWN7ccSg+GQfJu6t
fja1dUJbVwxUPI+MTMCmXXW6WophkEnMNPMepYy/r8rhkRoFtQWouKdDgmPNN+dj
yJ86Pa41DyD9Qrv8b2W5k2S6Vjl1n90CAwEAAaOBqjCBpzAOBgNVHQ8BAf8EBAMC
BaAwCQYDVR0TBAIwADAdBgNVHSUEFjAUBggrBgEFBQcDAQYIKwYBBQUHAwIwHQYD
VR0OBBYEFAMcEtSoLo4mbjQ28IJXZ4/taCmSMB8GA1UdIwQYMBaAFGI4sYKnE8FK
wnGatgPCIIMhfyaBMCsGA1UdEQQkMCKCIHdvcmtmbG93cy5maXNoc2Vuc2UuZTRl
LnVjc2QuZWR1MA0GCSqGSIb3DQEBCwUAA4ICAQAdSEmEQdB+hqR9a8l5/aEcmfZB
V8KISHIHQa93OW5dLYhMzazuIHQdl400nGgvOBBleAuEK4nlgEMJu++9cAX9Nq1O
EICBcj/l8dAhhO+4AgXFXzl+MQ/swinD5VqilkA63cpc7Z13kX/qBCE1/s3DRV6H
kzfRbx0l3Et+65W369R/kh8IBheKUXp4iW/l4G0eC/REYX0KkOYH4a/J8kE1Q1y9
gaSfobyUzBv0o3Q6Cq0zmPpPwQP5KMES0qV5IHfeBdDWB2cBMCaMjozdi2dBmZfV
WsOqu+CISOoMWHGO/TiW3wFFovKYISxe3BTggMdX8uRXFQx9pHlkoV9ZtcAhc0bF
+i8CEistBmJWU9iCGntzwPOadzGTBw1PxMePORDTh03HpqQz0v91Cj36sCXlFGxe
K/I3w4/aq9MJN6g6BHnFrU1arkDCfSBDOdFNn9dpiqie8qkAd6A4Fhd7G9cmT6TB
gaGRIFvLPM9FdWeYzna0tjsjt/xVGD/wAUUAyskiJaMypaWRkBYDmTg5A9KNhP4L
fWJ2NDxTPvNuvMeukFRHlVHq0LylzvoixGtV4I0FbWehQgVRLWO8aEGDPoxPlX/y
xDwNiZmvolXQK7ppf2o73Tq1Fg/g6twgZieOQgevlhH5RWvln6qJaIEtfsBw6F8m
IXZoH9GTFqtfmzCQvQ==
-----END CERTIFICATE-----
